target datalayout = "e-m:e-p270:32:32-p271:32:32-p272:64:64-i64:64-i128:128-f80:128-n8:16:32:64-S128"
target triple = "x86_64-pc-linux-gnu"

%struct.bn_gencb_st = type { i32, ptr, %union.anon }
%union.anon = type { ptr }

; Function Attrs: nounwind uwtable
define i32 @BN_GENCB_call(ptr noundef %0, i32 noundef %1, i32 noundef %2) #0 {
  %4 = alloca i32, align 4
  %5 = alloca ptr, align 8
  %6 = alloca i32, align 4
  %7 = alloca i32, align 4
  store ptr %0, ptr %5, align 8, !tbaa !3
  store i32 %1, ptr %6, align 4, !tbaa !8
  store i32 %2, ptr %7, align 4, !tbaa !8
  %8 = load ptr, ptr %5, align 8, !tbaa !3
  %9 = icmp ne ptr %8, null
  br i1 %9, label %11, label %10

10:                                               ; preds = %3
  store i32 1, ptr %4, align 4
  br label %40

11:                                               ; preds = %3
  %12 = load ptr, ptr %5, align 8, !tbaa !3
  %13 = getelementptr inbounds nuw %struct.bn_gencb_st, ptr %12, i32 0, i32 0
  %14 = load i32, ptr %13, align 8, !tbaa !10
  switch i32 %14, label %38 [
    i32 1, label %15
    i32 2, label %30
  ]

15:                                               ; preds = %11
  %16 = load ptr, ptr %5, align 8, !tbaa !3
  %17 = getelementptr inbounds nuw %struct.bn_gencb_st, ptr %16, i32 0, i32 2
  %18 = load ptr, ptr %17, align 8, !tbaa !12
  %19 = icmp ne ptr %18, null
  br i1 %19, label %21, label %20

20:                                               ; preds = %15
  store i32 1, ptr %4, align 4
  br label %40

21:                                               ; preds = %15
  %22 = load ptr, ptr %5, align 8, !tbaa !3
  %23 = getelementptr inbounds nuw %struct.bn_gencb_st, ptr %22, i32 0, i32 2
  %24 = load ptr, ptr %23, align 8, !tbaa !12
  %25 = load i32, ptr %6, align 4, !tbaa !8
  %26 = load i32, ptr %7, align 4, !tbaa !8
  %27 = load ptr, ptr %5, align 8, !tbaa !3
  %28 = getelementptr inbounds nuw %struct.bn_gencb_st, ptr %27, i32 0, i32 1
  %29 = load ptr, ptr %28, align 8, !tbaa !13
  call void %24(i32 noundef %25, i32 noundef %26, ptr noundef %29)
  store i32 1, ptr %4, align 4
  br label %40

30:                                               ; preds = %11
  %31 = load ptr, ptr %5, align 8, !tbaa !3
  %32 = getelementptr inbounds nuw %struct.bn_gencb_st, ptr %31, i32 0, i32 2
  %33 = load ptr, ptr %32, align 8, !tbaa !12
  %34 = load i32, ptr %6, align 4, !tbaa !8
  %35 = load i32, ptr %7, align 4, !tbaa !8
  %36 = load ptr, ptr %5, align 8, !tbaa !3
  %37 = call i32 %33(i32 noundef %34, i32 noundef %35, ptr noundef %36)
  store i32 %37, ptr %4, align 4
  br label %40

38:                                               ; preds = %11
  br label %39

39:                                               ; preds = %38
  store i32 0, ptr %4, align 4
  br label %40

40:                                               ; preds = %39, %30, %21, %20, %10
  %41 = load i32, ptr %4, align 4
  ret i32 %41
}

; Function Attrs: nounwind uwtable
define internal i32 @calc_trial_divisions(i32 noundef %0) #0 {
  %2 = alloca i32, align 4
  %3 = alloca i32, align 4
  store i32 %0, ptr %3, align 4, !tbaa !8
  %4 = load i32, ptr %3, align 4, !tbaa !8
  %5 = icmp sle i32 %4, 512
  br i1 %5, label %6, label %7

6:                                                ; preds = %1
  store i32 64, ptr %2, align 4
  br label %23

7:                                                ; preds = %1
  %8 = load i32, ptr %3, align 4, !tbaa !8
  %9 = icmp sle i32 %8, 1024
  br i1 %9, label %10, label %11

10:                                               ; preds = %7
  store i32 128, ptr %2, align 4
  br label %23

11:                                               ; preds = %7
  %12 = load i32, ptr %3, align 4, !tbaa !8
  %13 = icmp sle i32 %12, 2048
  br i1 %13, label %14, label %15

14:                                               ; preds = %11
  store i32 384, ptr %2, align 4
  br label %23

15:                                               ; preds = %11
  %16 = load i32, ptr %3, align 4, !tbaa !8
  %17 = icmp sle i32 %16, 4096
  br i1 %17, label %18, label %19

18:                                               ; preds = %15
  store i32 1024, ptr %2, align 4
  br label %23

19:                                               ; preds = %15
  br label %20

20:                                               ; preds = %19
  br label %21

21:                                               ; preds = %20
  br label %22

22:                                               ; preds = %21
  store i32 2048, ptr %2, align 4
  br label %23

23:                                               ; preds = %22, %18, %14, %10, %6
  %24 = load i32, ptr %2, align 4
  ret i32 %24
}

; Function Attrs: nounwind uwtable
define internal i32 @bn_is_prime_int(ptr noundef %0, i32 noundef %1, ptr noundef %2, i32 noundef %3, ptr noundef %4) #0 {
  %6 = alloca i32, align 4
  %7 = alloca ptr, align 8
  %8 = alloca i32, align 4
  %9 = alloca ptr, align 8
  %10 = alloca i32, align 4
  %11 = alloca ptr, align 8
  %12 = alloca i32, align 4
  %13 = alloca i32, align 4
  %14 = alloca i32, align 4
  %15 = alloca ptr, align 8
  %16 = alloca i32, align 4
  %17 = alloca i32, align 4
  %18 = alloca i64, align 8
  store ptr %0, ptr %7, align 8, !tbaa !14
  store i32 %1, ptr %8, align 4, !tbaa !8
  store ptr %2, ptr %9, align 8, !tbaa !16
  store i32 %3, ptr %10, align 4, !tbaa !8
  store ptr %4, ptr %11, align 8, !tbaa !3
  call void @llvm.lifetime.start.p0(i64 4, ptr %12) #3
  call void @llvm.lifetime.start.p0(i64 4, ptr %13) #3
  call void @llvm.lifetime.start.p0(i64 4, ptr %14) #3
  store i32 -1, ptr %14, align 4, !tbaa !8
  call void @llvm.lifetime.start.p0(i64 8, ptr %15) #3
  store ptr null, ptr %15, align 8, !tbaa !16
  %19 = load ptr, ptr %7, align 8, !tbaa !14
  %20 = call ptr @BN_value_one()
  %21 = call i32 @BN_cmp(ptr noundef %19, ptr noundef %20)
  %22 = icmp sle i32 %21, 0
  br i1 %22, label %23, label %24

23:                                               ; preds = %5
  store i32 0, ptr %6, align 4
  store i32 1, ptr %16, align 4
  br label %108

24:                                               ; preds = %5
  %25 = load ptr, ptr %7, align 8, !tbaa !14
  %26 = call i32 @BN_is_odd(ptr noundef %25)
  %27 = icmp ne i32 %26, 0
  br i1 %27, label %28, label %34

28:                                               ; preds = %24
  %29 = load ptr, ptr %7, align 8, !tbaa !14
  %30 = call i32 @BN_is_word(ptr noundef %29, i64 noundef 3)
  %31 = icmp ne i32 %30, 0
  br i1 %31, label %32, label %33

32:                                               ; preds = %28
  store i32 1, ptr %6, align 4
  store i32 1, ptr %16, align 4
  br label %108

33:                                               ; preds = %28
  br label %37

34:                                               ; preds = %24
  %35 = load ptr, ptr %7, align 8, !tbaa !14
  %36 = call i32 @BN_is_word(ptr noundef %35, i64 noundef 2)
  store i32 %36, ptr %6, align 4
  store i32 1, ptr %16, align 4
  br label %108

37:                                               ; preds = %33
  %38 = load i32, ptr %10, align 4, !tbaa !8
  %39 = icmp ne i32 %38, 0
  br i1 %39, label %40, label %86

40:                                               ; preds = %37
  call void @llvm.lifetime.start.p0(i64 4, ptr %17) #3
  %41 = load ptr, ptr %7, align 8, !tbaa !14
  %42 = call i32 @BN_num_bits(ptr noundef %41)
  %43 = call i32 @calc_trial_divisions(i32 noundef %42)
  store i32 %43, ptr %17, align 4, !tbaa !8
  store i32 1, ptr %12, align 4, !tbaa !8
  br label %44

44:                                               ; preds = %74, %40
  %45 = load i32, ptr %12, align 4, !tbaa !8
  %46 = load i32, ptr %17, align 4, !tbaa !8
  %47 = icmp slt i32 %45, %46
  br i1 %47, label %48, label %77

48:                                               ; preds = %44
  call void @llvm.lifetime.start.p0(i64 8, ptr %18) #3
  %49 = load ptr, ptr %7, align 8, !tbaa !14
  %50 = load i32, ptr %12, align 4, !tbaa !8
  %51 = sext i32 %50 to i64
  %52 = getelementptr inbounds [2048 x i16], ptr @primes, i64 0, i64 %51
  %53 = load i16, ptr %52, align 2, !tbaa !22
  %54 = zext i16 %53 to i64
  %55 = call i64 @BN_mod_word(ptr noundef %49, i64 noundef %54)
  store i64 %55, ptr %18, align 8, !tbaa !24
  %56 = load i64, ptr %18, align 8, !tbaa !24
  %57 = icmp eq i64 %56, -1
  br i1 %57, label %58, label %59

58:                                               ; preds = %48
  store i32 -1, ptr %6, align 4
  store i32 1, ptr %16, align 4
  br label %71

59:                                               ; preds = %48
  %60 = load i64, ptr %18, align 8, !tbaa !24
  %61 = icmp eq i64 %60, 0
  br i1 %61, label %62, label %70

62:                                               ; preds = %59
  %63 = load ptr, ptr %7, align 8, !tbaa !14
  %64 = load i32, ptr %12, align 4, !tbaa !8
  %65 = sext i32 %64 to i64
  %66 = getelementptr inbounds [2048 x i16], ptr @primes, i64 0, i64 %65
  %67 = load i16, ptr %66, align 2, !tbaa !22
  %68 = zext i16 %67 to i64
  %69 = call i32 @BN_is_word(ptr noundef %63, i64 noundef %68)
  store i32 %69, ptr %6, align 4
  store i32 1, ptr %16, align 4
  br label %71

70:                                               ; preds = %59
  store i32 0, ptr %16, align 4
  br label %71

71:                                               ; preds = %70, %62, %58
  call void @llvm.lifetime.end.p0(i64 8, ptr %18) #3
  %72 = load i32, ptr %16, align 4
  switch i32 %72, label %83 [
    i32 0, label %73
  ]

73:                                               ; preds = %71
  br label %74

74:                                               ; preds = %73
  %75 = load i32, ptr %12, align 4, !tbaa !8
  %76 = add nsw i32 %75, 1
  store i32 %76, ptr %12, align 4, !tbaa !8
  br label %44, !llvm.loop !30

77:                                               ; preds = %44
  %78 = load ptr, ptr %11, align 8, !tbaa !3
  %79 = call i32 @BN_GENCB_call(ptr noundef %78, i32 noundef 1, i32 noundef -1)
  %80 = icmp ne i32 %79, 0
  br i1 %80, label %82, label %81

81:                                               ; preds = %77
  store i32 -1, ptr %6, align 4
  store i32 1, ptr %16, align 4
  br label %83

82:                                               ; preds = %77
  store i32 0, ptr %16, align 4
  br label %83

83:                                               ; preds = %82, %81, %71
  call void @llvm.lifetime.end.p0(i64 4, ptr %17) #3
  %84 = load i32, ptr %16, align 4
  switch i32 %84, label %108 [
    i32 0, label %85
  ]

85:                                               ; preds = %83
  br label %86

86:                                               ; preds = %85, %37
  %87 = load ptr, ptr %9, align 8, !tbaa !16
  %88 = icmp eq ptr %87, null
  br i1 %88, label %89, label %93

89:                                               ; preds = %86
  %90 = call ptr @BN_CTX_new()
  store ptr %90, ptr %9, align 8, !tbaa !16
  store ptr %90, ptr %15, align 8, !tbaa !16
  %91 = icmp eq ptr %90, null
  br i1 %91, label %92, label %93

92:                                               ; preds = %89
  br label %105

93:                                               ; preds = %89, %86
  %94 = load ptr, ptr %7, align 8, !tbaa !14
  %95 = load i32, ptr %8, align 4, !tbaa !8
  %96 = load ptr, ptr %9, align 8, !tbaa !16
  %97 = load ptr, ptr %11, align 8, !tbaa !3
  %98 = call i32 @ossl_bn_miller_rabin_is_prime(ptr noundef %94, i32 noundef %95, ptr noundef %96, ptr noundef %97, i32 noundef 0, ptr noundef %13)
  %99 = icmp ne i32 %98, 0
  br i1 %99, label %101, label %100

100:                                              ; preds = %93
  store i32 -1, ptr %14, align 4, !tbaa !8
  br label %105

101:                                              ; preds = %93
  %102 = load i32, ptr %13, align 4, !tbaa !8
  %103 = icmp eq i32 %102, 3
  %104 = zext i1 %103 to i32
  store i32 %104, ptr %14, align 4, !tbaa !8
  br label %105

105:                                              ; preds = %101, %100, %92
  %106 = load ptr, ptr %15, align 8, !tbaa !16
  call void @BN_CTX_free(ptr noundef %106)
  %107 = load i32, ptr %14, align 4, !tbaa !8
  store i32 %107, ptr %6, align 4
  store i32 1, ptr %16, align 4
  br label %108

108:                                              ; preds = %105, %83, %34, %32, %23
  call void @llvm.lifetime.end.p0(i64 8, ptr %15) #3
  call void @llvm.lifetime.end.p0(i64 4, ptr %14) #3
  call void @llvm.lifetime.end.p0(i64 4, ptr %13) #3
  call void @llvm.lifetime.end.p0(i64 4, ptr %12) #3
  %109 = load i32, ptr %6, align 4
  ret i32 %109
}