; Function Attrs: nounwind uwtable
define internal fastcc i32 @bn_is_prime_int(ptr noundef %0, i32 noundef %1, ptr noundef %2, i32 noundef %3, ptr noundef %4) unnamed_addr #1 {
  %6 = alloca i32, align 4
  call void @llvm.lifetime.start.p0(i64 4, ptr nonnull %6) #5
  %7 = tail call ptr @BN_value_one() #5
  %8 = tail call i32 @BN_cmp(ptr noundef %0, ptr noundef %7) #5
  %9 = icmp slt i32 %8, 1
  br i1 %9, label %.thread44, label %10

10:                                               ; preds = %5
  %11 = tail call i32 @BN_is_odd(ptr noundef %0) #5
  %.not = icmp eq i32 %11, 0
  br i1 %.not, label %14, label %12

12:                                               ; preds = %10
  %13 = tail call i32 @BN_is_word(ptr noundef %0, i64 noundef 3) #5
  %.not37 = icmp eq i32 %13, 0
  br i1 %.not37, label %16, label %.thread44

14:                                               ; preds = %10
  %15 = tail call i32 @BN_is_word(ptr noundef %0, i64 noundef 2) #5
  br label %.thread44

16:                                               ; preds = %12
  %.not38 = icmp eq i32 %3, 0
  br i1 %.not38, label %.thread48, label %17

17:                                               ; preds = %16
  %18 = tail call i32 @BN_num_bits(ptr noundef %0) #5
  %19 = icmp slt i32 %18, 513
  br i1 %19, label %calc_trial_divisions.exit, label %20

20:                                               ; preds = %17
  %21 = icmp samesign ult i32 %18, 1025
  br i1 %21, label %calc_trial_divisions.exit, label %22

22:                                               ; preds = %20
  %23 = icmp samesign ult i32 %18, 2049
  br i1 %23, label %calc_trial_divisions.exit, label %24

24:                                               ; preds = %22
  %25 = icmp samesign ult i32 %18, 4097
  %..i = select i1 %25, i64 1024, i64 2048
  br label %calc_trial_divisions.exit

calc_trial_divisions.exit:                        ; preds = %17, %20, %22, %24
  %.0.i = phi i64 [ 64, %17 ], [ 128, %20 ], [ 384, %22 ], [ %..i, %24 ]
  br label %26

26:                                               ; preds = %calc_trial_divisions.exit, %33
  %indvars.iv = phi i64 [ 1, %calc_trial_divisions.exit ], [ %indvars.iv.next, %33 ]
  %27 = getelementptr inbounds nuw [2048 x i16], ptr @primes, i64 0, i64 %indvars.iv
  %28 = load i16, ptr %27, align 2, !tbaa !11
  %29 = zext i16 %28 to i64
  %30 = tail call i64 @BN_mod_word(ptr noundef %0, i64 noundef %29) #5
  switch i64 %30, label %33 [
    i64 -1, label %.thread44
    i64 0, label %31
  ]

31:                                               ; preds = %26
  %32 = tail call i32 @BN_is_word(ptr noundef %0, i64 noundef %29) #5
  br label %.thread44

33:                                               ; preds = %26
  %indvars.iv.next = add nuw nsw i64 %indvars.iv, 1
  %exitcond.not = icmp eq i64 %indvars.iv.next, %.0.i
  br i1 %exitcond.not, label %34, label %26, !llvm.loop !19

34:                                               ; preds = %33
  %.not.i = icmp eq ptr %4, null
  br i1 %.not.i, label %.thread48, label %35

35:                                               ; preds = %34
  %36 = load i32, ptr %4, align 8, !tbaa !3
  switch i32 %36, label %.thread44 [
    i32 1, label %37
    i32 2, label %43
  ]

37:                                               ; preds = %35
  %38 = getelementptr inbounds nuw i8, ptr %4, i64 16
  %39 = load ptr, ptr %38, align 8, !tbaa !9
  %.not13.i = icmp eq ptr %39, null
  br i1 %.not13.i, label %.thread48, label %40

40:                                               ; preds = %37
  %41 = getelementptr inbounds nuw i8, ptr %4, i64 8
  %42 = load ptr, ptr %41, align 8, !tbaa !10
  tail call void %39(i32 noundef 1, i32 noundef -1, ptr noundef %42) #5
  br label %.thread48

43:                                               ; preds = %35
  %44 = getelementptr inbounds nuw i8, ptr %4, i64 16
  %45 = load ptr, ptr %44, align 8, !tbaa !9
  %46 = tail call i32 %45(i32 noundef 1, i32 noundef -1, ptr noundef nonnull %4) #5
  %.not39.not = icmp eq i32 %46, 0
  br i1 %.not39.not, label %.thread44, label %.thread48

.thread48:                                        ; preds = %37, %34, %40, %43, %16
  %47 = icmp eq ptr %2, null
  br i1 %47, label %48, label %51

48:                                               ; preds = %.thread48
  %49 = tail call ptr @BN_CTX_new() #5
  %50 = icmp eq ptr %49, null
  br i1 %50, label %57, label %51

51:                                               ; preds = %48, %.thread48
  %.029 = phi ptr [ %49, %48 ], [ null, %.thread48 ]
  %.026 = phi ptr [ %49, %48 ], [ %2, %.thread48 ]
  %52 = call i32 @ossl_bn_miller_rabin_is_prime(ptr noundef %0, i32 noundef %1, ptr noundef nonnull %.026, ptr noundef %4, i32 noundef 0, ptr noundef nonnull %6)
  %.not40 = icmp eq i32 %52, 0
  br i1 %.not40, label %57, label %53

53:                                               ; preds = %51
  %54 = load i32, ptr %6, align 4, !tbaa !20
  %55 = icmp eq i32 %54, 3
  %56 = zext i1 %55 to i32
  br label %57

57:                                               ; preds = %51, %48, %53
  %.031 = phi i32 [ -1, %48 ], [ %56, %53 ], [ -1, %51 ]
  %.130 = phi ptr [ null, %48 ], [ %.029, %53 ], [ %.029, %51 ]
  tail call void @BN_CTX_free(ptr noundef %.130) #5
  br label %.thread44

.thread44:                                        ; preds = %26, %35, %31, %12, %5, %43, %57, %14
  %.0 = phi i32 [ %.031, %57 ], [ -1, %43 ], [ %15, %14 ], [ 0, %5 ], [ 1, %12 ], [ %32, %31 ], [ -1, %35 ], [ -1, %26 ]
  call void @llvm.lifetime.end.p0(i64 4, ptr nonnull %6) #5
  ret i32 %.0
}